; Function Attrs: nounwind uwtable
define range(i32 -1, 1) i32 @H5Z_get_filter_info(i32 noundef %0, ptr noundef writeonly %1) local_unnamed_addr #0 {
  %3 = load i64, ptr @H5Z_table_used_g, align 8
  %.not.i.i = icmp eq i64 %3, 0
  br i1 %.not.i.i, label %.loopexit, label %.lr.ph.i.i

.lr.ph.i.i:                                       ; preds = %2
  %4 = load ptr, ptr @H5Z_table_g, align 8
  br label %5

5:                                                ; preds = %9, %.lr.ph.i.i
  %.068.i.i = phi i64 [ 0, %.lr.ph.i.i ], [ %10, %9 ]
  %6 = getelementptr inbounds %struct.H5Z_class2_t, ptr %4, i64 %.068.i.i, i32 1
  %7 = load i32, ptr %6, align 4
  %8 = icmp eq i32 %7, %0
  br i1 %8, label %H5Z__find_idx.exit.i, label %9

9:                                                ; preds = %5
  %10 = add nuw i64 %.068.i.i, 1
  %exitcond.not.i.i = icmp eq i64 %10, %3
  br i1 %exitcond.not.i.i, label %.loopexit, label %5

H5Z__find_idx.exit.i:                             ; preds = %5
  %11 = and i64 %.068.i.i, 2147483648
  %.not.i = icmp eq i64 %11, 0
  br i1 %.not.i, label %18, label %.loopexit

.loopexit:                                        ; preds = %9, %H5Z__find_idx.exit.i, %2
  %12 = load i64, ptr @H5E_PLINE_g, align 8
  %13 = load i64, ptr @H5E_NOTFOUND_g, align 8
  %14 = tail call i32 (ptr, ptr, i32, i64, i64, ptr, ...) @H5E_printf_stack(ptr noundef nonnull @.str, ptr noundef nonnull @__func__.H5Z_find, i32 noundef 1311, i64 noundef %12, i64 noundef %13, ptr noundef nonnull @.str.32, i32 noundef %0) #9
  %15 = load i64, ptr @H5E_PLINE_g, align 8
  %16 = load i64, ptr @H5E_BADVALUE_g, align 8
  %17 = tail call i32 (ptr, ptr, i32, i64, i64, ptr, ...) @H5E_printf_stack(ptr noundef nonnull @.str, ptr noundef nonnull @__func__.H5Z_get_filter_info, i32 noundef 1748, i64 noundef %15, i64 noundef %16, ptr noundef nonnull @.str.40) #9
  br label %28

18:                                               ; preds = %H5Z__find_idx.exit.i
  %.not = icmp eq ptr %1, null
  br i1 %.not, label %28, label %19

19:                                               ; preds = %18
  %20 = and i64 %.068.i.i, 2147483647
  %21 = getelementptr inbounds %struct.H5Z_class2_t, ptr %4, i64 %20
  store i32 0, ptr %1, align 4
  %22 = getelementptr inbounds i8, ptr %21, i64 8
  %23 = load i32, ptr %22, align 8
  %.not10 = icmp ne i32 %23, 0
  %spec.store.select = zext i1 %.not10 to i32
  store i32 %spec.store.select, ptr %1, align 4
  %24 = getelementptr inbounds i8, ptr %21, i64 12
  %25 = load i32, ptr %24, align 4
  %.not11 = icmp eq i32 %25, 0
  br i1 %.not11, label %28, label %26

26:                                               ; preds = %19
  %27 = or disjoint i32 %spec.store.select, 2
  store i32 %27, ptr %1, align 4
  br label %28

28:                                               ; preds = %18, %26, %19, %.loopexit
  %.0 = phi i32 [ -1, %.loopexit ], [ 0, %26 ], [ 0, %19 ], [ 0, %18 ]
  ret i32 %.0
}